; Function Attrs: mustprogress null_pointer_is_valid sspstrong uwtable
define void @_ZN20PacketFormatGroupBox29on_allCollapsedButton_toggledEb(ptr noundef align 8 dereferenceable_or_null(48) %0, i1 noundef zeroext %1) local_unnamed_addr #0 align 2 {
  br i1 %1, label %3, label %4

3:                                                ; preds = %2
  tail call void @_ZN20PacketFormatGroupBox13formatChangedEv(ptr noundef align 8 dereferenceable_or_null(48) %0)
  br label %4

4:                                                ; preds = %3, %2
  ret void
}